target datalayout = "e-m:e-p270:32:32-p271:32:32-p272:64:64-i64:64-i128:128-f80:128-n8:16:32:64-S128"
target triple = "x86_64-unknown-linux-gnu"

%"class.spacer::unsat_core_learner" = type { ptr, ptr, ptr, %class.ptr_vector, %class.ast_mark, %class.ref_vector }
%class.ptr_vector = type { %class.vector }
%class.vector = type { ptr }
%class.ast_mark = type { ptr, %class.obj_mark, %class.obj_mark.0 }
%class.obj_mark = type { %struct.default_t2uint, %class.bit_vector }
%struct.default_t2uint = type { i8 }
%class.bit_vector = type { i32, i32, ptr }
%class.obj_mark.0 = type { %"struct.ast_mark::decl2uint", %class.bit_vector }
%"struct.ast_mark::decl2uint" = type { i8 }
%class.ref_vector = type { %class.ref_vector_core }
%class.ref_vector_core = type { %class.ref_manager_wrapper, %class.ptr_vector.1 }
%class.ref_manager_wrapper = type { ptr }
%class.ptr_vector.1 = type { %class.vector.2 }
%class.vector.2 = type { ptr }

; Function Attrs: mustprogress uwtable
define linkonce_odr hidden noundef nonnull align 8 dereferenceable(8) ptr @_ZN6vectorIPN6spacer17unsat_core_pluginELb0EjE9push_backERKS2_(ptr noundef nonnull align 8 dereferenceable(8) %this, ptr noundef nonnull align 8 dereferenceable(8) %elem) #5 comdat align 2 {
entry:
  %this.addr = alloca ptr, align 8
  %elem.addr = alloca ptr, align 8
  store ptr %this, ptr %this.addr, align 8
  store ptr %elem, ptr %elem.addr, align 8
  %this1 = load ptr, ptr %this.addr, align 8
  %m_data = getelementptr inbounds %class.vector, ptr %this1, i32 0, i32 0
  %0 = load ptr, ptr %m_data, align 8
  %cmp = icmp eq ptr %0, null
  br i1 %cmp, label %if.then, label %lor.lhs.false

lor.lhs.false:                                    ; preds = %entry
  %m_data2 = getelementptr inbounds %class.vector, ptr %this1, i32 0, i32 0
  %1 = load ptr, ptr %m_data2, align 8
  %arrayidx = getelementptr inbounds i32, ptr %1, i64 -1
  %2 = load i32, ptr %arrayidx, align 4
  %m_data3 = getelementptr inbounds %class.vector, ptr %this1, i32 0, i32 0
  %3 = load ptr, ptr %m_data3, align 8
  %arrayidx4 = getelementptr inbounds i32, ptr %3, i64 -2
  %4 = load i32, ptr %arrayidx4, align 4
  %cmp5 = icmp eq i32 %2, %4
  br i1 %cmp5, label %if.then, label %if.end

if.then:                                          ; preds = %lor.lhs.false, %entry
  call void @_ZN6vectorIPN6spacer17unsat_core_pluginELb0EjE13expand_vectorEv(ptr noundef nonnull align 8 dereferenceable(8) %this1)
  br label %if.end

if.end:                                           ; preds = %if.then, %lor.lhs.false
  %m_data6 = getelementptr inbounds %class.vector, ptr %this1, i32 0, i32 0
  %5 = load ptr, ptr %m_data6, align 8
  %m_data7 = getelementptr inbounds %class.vector, ptr %this1, i32 0, i32 0
  %6 = load ptr, ptr %m_data7, align 8
  %arrayidx8 = getelementptr inbounds i32, ptr %6, i64 -1
  %7 = load i32, ptr %arrayidx8, align 4
  %idx.ext = zext i32 %7 to i64
  %add.ptr = getelementptr inbounds ptr, ptr %5, i64 %idx.ext
  %8 = load ptr, ptr %elem.addr, align 8
  %9 = load ptr, ptr %8, align 8
  store ptr %9, ptr %add.ptr, align 8
  %m_data9 = getelementptr inbounds %class.vector, ptr %this1, i32 0, i32 0
  %10 = load ptr, ptr %m_data9, align 8
  %arrayidx10 = getelementptr inbounds i32, ptr %10, i64 -1
  %11 = load i32, ptr %arrayidx10, align 4
  %inc = add i32 %11, 1
  store i32 %inc, ptr %arrayidx10, align 4
  ret ptr %this1
}

; Function Attrs: mustprogress uwtable
define hidden void @_ZN6spacer18unsat_core_learner15register_pluginEPNS_17unsat_core_pluginE(ptr noundef nonnull align 8 dereferenceable(104) %this, ptr noundef %plugin) #5 align 2 {
entry:
  %this.addr = alloca ptr, align 8
  %plugin.addr = alloca ptr, align 8
  store ptr %this, ptr %this.addr, align 8
  store ptr %plugin, ptr %plugin.addr, align 8
  %this1 = load ptr, ptr %this.addr, align 8
  %m_plugins = getelementptr inbounds %"class.spacer::unsat_core_learner", ptr %this1, i32 0, i32 3
  %call = call noundef nonnull align 8 dereferenceable(8) ptr @_ZN6vectorIPN6spacer17unsat_core_pluginELb0EjE9push_backERKS2_(ptr noundef nonnull align 8 dereferenceable(8) %m_plugins, ptr noundef nonnull align 8 dereferenceable(8) %plugin.addr)
  ret void
}